; Function Attrs: null_pointer_is_valid sspstrong uwtable
define internal fastcc void @dissect_bthci_evt_amp_receiver_test(ptr noundef %0, ptr noundef %1) unnamed_addr #1 {
  %3 = load i32, ptr @hf_bthci_evt_amp_controller_type, align 4
  %4 = tail call ptr @proto_tree_add_item(ptr noundef %1, i32 noundef %3, ptr noundef %0, i32 noundef 2, i32 noundef 1, i32 noundef -2147483648)
  %5 = load i32, ptr @hf_bthci_evt_report_reason, align 4
  %6 = tail call ptr @proto_tree_add_item(ptr noundef %1, i32 noundef %5, ptr noundef %0, i32 noundef 3, i32 noundef 1, i32 noundef -2147483648)
  %7 = load i32, ptr @hf_bthci_evt_report_event_type, align 4
  %8 = tail call ptr @proto_tree_add_item(ptr noundef %1, i32 noundef %7, ptr noundef %0, i32 noundef 4, i32 noundef 1, i32 noundef -2147483648)
  %9 = load i32, ptr @hf_bthci_evt_num_frames, align 4
  %10 = tail call ptr @proto_tree_add_item(ptr noundef %1, i32 noundef %9, ptr noundef %0, i32 noundef 5, i32 noundef 2, i32 noundef -2147483648)
  %11 = load i32, ptr @hf_bthci_evt_num_error_frames, align 4
  %12 = tail call ptr @proto_tree_add_item(ptr noundef %1, i32 noundef %11, ptr noundef %0, i32 noundef 7, i32 noundef 2, i32 noundef -2147483648)
  %13 = load i32, ptr @hf_bthci_evt_num_bits, align 4
  %14 = tail call ptr @proto_tree_add_item(ptr noundef %1, i32 noundef %13, ptr noundef %0, i32 noundef 9, i32 noundef 4, i32 noundef -2147483648)
  %15 = load i32, ptr @hf_bthci_evt_num_error_bits, align 4
  %16 = tail call ptr @proto_tree_add_item(ptr noundef %1, i32 noundef %15, ptr noundef %0, i32 noundef 13, i32 noundef 4, i32 noundef -2147483648)
  ret void
}